(dp1
S'24'
p2
(lp3
(dp4
S'difficult'
p5
I0
sS'pose'
p6
S'Unspecified'
p7
sS'name'
p8
S'peach'
p9
sS'bbox'
p10
(lp11
I42
aI72
aI202
aI231
asS'truncated'
p12
I0
sa(dp13
g5
I0
sg6
S'Unspecified'
p14
sg8
S'rotten'
p15
sg10
(lp16
I113
aI73
aI201
aI212
asg12
I0
sasS'25'
p17
(lp18
(dp19
g5
I0
sg6
S'Unspecified'
p20
sg8
S'peach'
p21
sg10
(lp22
I129
aI60
aI260
aI192
asg12
I0
sa(dp23
g5
I0
sg6
S'Unspecified'
p24
sg8
S'rotten'
p25
sg10
(lp26
I130
aI85
aI164
aI149
asg12
I0
sasS'26'
p27
(lp28
(dp29
g5
I0
sg6
S'Unspecified'
p30
sg8
S'peach'
p31
sg10
(lp32
I256
aI89
aI1019
aI845
asg12
I0
sa(dp33
g5
I0
sg6
S'Unspecified'
p34
sg8
S'rotten'
p35
sg10
(lp36
I312
aI133
aI916
aI782
asg12
I0
sasS'22'
p37
(lp38
(dp39
g5
I0
sg6
S'Unspecified'
p40
sg8
S'peach'
p41
sg10
(lp42
I92
aI112
aI517
aI512
asg12
I0
sasS'23'
p43
(lp44
(dp45
g5
I0
sg6
S'Unspecified'
p46
sg8
S'peach'
p47
sg10
(lp48
I70
aI127
aI508
aI529
asg12
I0
sasS'42'
p49
(lp50
(dp51
g5
I0
sg6
S'Unspecified'
p52
sg8
S'watermelon'
p53
sg10
(lp54
I189
aI52
aI412
aI249
asg12
I0
sasS'35'
p55
(lp56
(dp57
g5
I0
sg6
S'Unspecified'
p58
sg8
S'pear'
p59
sg10
(lp60
I98
aI70
aI209
aI160
asg12
I0
sasS'34'
p61
(lp62
(dp63
g5
I0
sg6
S'Unspecified'
p64
sg8
S'pear'
p65
sg10
(lp66
I43
aI42
aI179
aI205
asg12
I0
sas.