(dp1
S'138'
p2
(lp3
(dp4
S'difficult'
p5
I0
sS'pose'
p6
S'Unspecified'
p7
sS'name'
p8
S'rotten_banana'
p9
sS'bbox'
p10
(lp11
I146
aI223
aI767
aI756
asS'truncated'
p12
I0
sa(dp13
g5
I0
sg6
S'Unspecified'
p14
sg8
S'rotten_banana'
p15
sg10
(lp16
I333
aI287
aI900
aI849
asg12
I0
sasS'45'
p17
(lp18
(dp19
g5
I0
sg6
S'Unspecified'
p20
sg8
S'fresh_banana'
p21
sg10
(lp22
I21
aI13
aI246
aI174
asg12
I0
sasS'131'
p23
(lp24
(dp25
g5
I0
sg6
S'Unspecified'
p26
sg8
S'rotten_banana'
p27
sg10
(lp28
I118
aI78
aI392
aI296
asg12
I0
sa(dp29
g5
I0
sg6
S'Unspecified'
p30
sg8
S'rotten_banana'
p31
sg10
(lp32
I147
aI111
aI414
aI360
asg12
I0
sa(dp33
g5
I0
sg6
S'Unspecified'
p34
sg8
S'rotten_banana'
p35
sg10
(lp36
I231
aI126
aI471
aI367
asg12
I0
sasS'77'
p37
(lp38
(dp39
g5
I0
sg6
S'Unspecified'
p40
sg8
S'fresh_banana'
p41
sg10
(lp42
I131
aI99
aI326
aI418
asg12
I0
sa(dp43
g5
I0
sg6
S'Unspecified'
p44
sg8
S'fresh_banana'
p45
sg10
(lp46
I260
aI82
aI409
aI391
asg12
I0
sasS'62'
p47
(lp48
(dp49
g5
I0
sg6
S'Unspecified'
p50
sg8
S'fresh_banana'
p51
sg10
(lp52
I92
aI612
aI739
aI1109
asg12
I0
sa(dp53
g5
I0
sg6
S'Unspecified'
p54
sg8
S'fresh_banana'
p55
sg10
(lp56
I140
aI116
aI754
aI448
asg12
I0
sa(dp57
g5
I0
sg6
S'Unspecified'
p58
sg8
S'fresh_banana'
p59
sg10
(lp60
I130
aI335
aI764
aI791
asg12
I0
sasS'109'
p61
(lp62
(dp63
g5
I0
sg6
S'Unspecified'
p64
sg8
S'rotten_banana'
p65
sg10
(lp66
I25
aI84
aI610
aI468
asg12
I0
sa(dp67
g5
I0
sg6
S'Unspecified'
p68
sg8
S'rotten_banana'
p69
sg10
(lp70
I190
aI104
aI688
aI573
asg12
I0
sa(dp71
g5
I0
sg6
S'Unspecified'
p72
sg8
S'rotten_banana'
p73
sg10
(lp74
I403
aI158
aI808
aI645
asg12
I0
sa(dp75
g5
I0
sg6
S'Unspecified'
p76
sg8
S'rotten_banana'
p77
sg10
(lp78
I711
aI101
aI964
aI627
asg12
I0
sasS'64'
p79
(lp80
(dp81
g5
I0
sg6
S'Unspecified'
p82
sg8
S'fresh_banana'
p83
sg10
(lp84
I112
aI73
aI501
aI280
asg12
I0
sasS'125'
p85
(lp86
(dp87
g5
I0
sg6
S'Unspecified'
p88
sg8
S'rotten_banana'
p89
sg10
(lp90
I48
aI75
aI198
aI271
asg12
I0
sasS'135'
p91
(lp92
(dp93
g5
I0
sg6
S'Unspecified'
p94
sg8
S'rotten_banana'
p95
sg10
(lp96
I6
aI26
aI494
aI320
asg12
I0
sasS'68'
p97
(lp98
(dp99
g5
I0
sg6
S'Unspecified'
p100
sg8
S'fresh_banana'
p101
sg10
(lp102
I81
aI32
aI448
aI347
asg12
I0
sasS'111'
p103
(lp104
(dp105
g5
I0
sg6
S'Unspecified'
p106
sg8
S'rotten_banana'
p107
sg10
(lp108
I2
aI49
aI339
aI241
asg12
I0
sasS'166'
p109
(lp110
(dp111
g5
I0
sg6
S'Unspecified'
p112
sg8
S'rotten_banana'
p113
sg10
(lp114
I127
aI128
aI598
aI430
asg12
I0
sa(dp115
g5
I0
sg6
S'Unspecified'
p116
sg8
S'rotten_banana'
p117
sg10
(lp118
I199
aI128
aI690
aI315
asg12
I0
sasS'189'
p119
(lp120
(dp121
g5
I0
sg6
S'Unspecified'
p122
sg8
S'rotten_banana'
p123
sg10
(lp124
I32
aI134
aI350
aI484
asg12
I0
sasS'106'
p125
(lp126
(dp127
g5
I0
sg6
S'Unspecified'
p128
sg8
S'rotten_banana'
p129
sg10
(lp130
I25
aI53
aI370
aI225
asg12
I0
sas.